target datalayout = "e-m:e-p270:32:32-p271:32:32-p272:64:64-i64:64-i128:128-f80:128-n8:16:32:64-S128"
target triple = "x86_64-pc-linux-gnu"

%class.CVQualifiers = type { ptr, i8, i8, %"class.std::vector.16", %"class.std::vector.16" }
%"class.std::vector.16" = type { %"struct.std::_Bvector_base" }
%"struct.std::_Bvector_base" = type { %"struct.std::_Bvector_base<std::allocator<bool>>::_Bvector_impl" }
%"struct.std::_Bvector_base<std::allocator<bool>>::_Bvector_impl" = type { %"struct.std::_Bvector_base<std::allocator<bool>>::_Bvector_impl_data" }
%"struct.std::_Bvector_base<std::allocator<bool>>::_Bvector_impl_data" = type { %"struct.std::_Bit_iterator", %"struct.std::_Bit_iterator", ptr }
%"struct.std::_Bit_iterator" = type { %"struct.std::_Bit_iterator_base.base", [4 x i8] }
%"struct.std::_Bit_iterator_base.base" = type <{ ptr, i32 }>
%class.Lhs = type <{ %class.Expression, ptr, ptr, i8, [7 x i8] }>
%class.Expression = type { ptr, i32, i32, ptr }
%class.Variable = type { ptr, %"class.std::vector.8", %"class.std::__cxx11::basic_string", ptr, ptr, i8, i8, i8, i8, i8, i8, ptr, i8, %class.CVQualifiers }
%"class.std::vector.8" = type { %"struct.std::_Vector_base.9" }
%"struct.std::_Vector_base.9" = type { %"struct.std::_Vector_base<Variable *, std::allocator<Variable *>>::_Vector_impl" }
%"struct.std::_Vector_base<Variable *, std::allocator<Variable *>>::_Vector_impl" = type { %"struct.std::_Vector_base<Variable *, std::allocator<Variable *>>::_Vector_impl_data" }
%"struct.std::_Vector_base<Variable *, std::allocator<Variable *>>::_Vector_impl_data" = type { ptr, ptr, ptr }
%"class.std::__cxx11::basic_string" = type { %"struct.std::__cxx11::basic_string<char>::_Alloc_hider", i64, %union.anon }
%"struct.std::__cxx11::basic_string<char>::_Alloc_hider" = type { ptr }
%union.anon = type { i64, [8 x i8] }

; Function Attrs: mustprogress uwtable
define dso_local noundef i32 @_ZNK3Lhs18get_indirect_levelEv(ptr noundef nonnull align 8 dereferenceable(41) %0) #4 align 2 {
  %2 = alloca ptr, align 8
  store ptr %0, ptr %2, align 8, !tbaa !99
  %3 = load ptr, ptr %2, align 8
  %4 = getelementptr inbounds nuw %class.Lhs, ptr %3, i32 0, i32 1
  %5 = load ptr, ptr %4, align 8, !tbaa !116
  %6 = getelementptr inbounds nuw %class.Variable, ptr %5, i32 0, i32 3
  %7 = load ptr, ptr %6, align 8, !tbaa !23
  %8 = call noundef i32 @_ZNK4Type18get_indirect_levelEv(ptr noundef nonnull align 8 dereferenceable(136) %7)
  %9 = getelementptr inbounds nuw %class.Lhs, ptr %3, i32 0, i32 2
  %10 = load ptr, ptr %9, align 8, !tbaa !107
  %11 = call noundef i32 @_ZNK4Type18get_indirect_levelEv(ptr noundef nonnull align 8 dereferenceable(136) %10)
  %12 = sub nsw i32 %8, %11
  ret i32 %12
}

; Function Attrs: mustprogress uwtable
define dso_local void @_ZNK3Lhs14get_qualifiersEv(ptr dead_on_unwind noalias writable sret(%class.CVQualifiers) align 8 %0, ptr noundef nonnull align 8 dereferenceable(41) %1) unnamed_addr #4 align 2 {
  %3 = alloca ptr, align 8
  %4 = alloca ptr, align 8
  %5 = alloca i32, align 4
  %6 = alloca i1, align 1
  store ptr %0, ptr %3, align 8
  store ptr %1, ptr %4, align 8, !tbaa !99
  %7 = load ptr, ptr %4, align 8
  call void @llvm.lifetime.start.p0(i64 4, ptr %5) #3
  %8 = call noundef i32 @_ZNK3Lhs18get_indirect_levelEv(ptr noundef nonnull align 8 dereferenceable(41) %7)
  store i32 %8, ptr %5, align 4, !tbaa !44
  store i1 false, ptr %6, align 1
  %9 = getelementptr inbounds nuw %class.Lhs, ptr %7, i32 0, i32 1
  %10 = load ptr, ptr %9, align 8, !tbaa !116
  %11 = getelementptr inbounds nuw %class.Variable, ptr %10, i32 0, i32 13
  %12 = load i32, ptr %5, align 4, !tbaa !44
  call void @_ZNK12CVQualifiers19indirect_qualifiersEi(ptr dead_on_unwind writable sret(%class.CVQualifiers) align 8 %0, ptr noundef nonnull align 8 dereferenceable(96) %11, i32 noundef %12)
  store i1 true, ptr %6, align 1
  %13 = load i1, ptr %6, align 1
  br i1 %13, label %15, label %14

14:                                               ; preds = %2
  call void @_ZN12CVQualifiersD1Ev(ptr noundef nonnull align 8 dereferenceable(96) %0) #3
  br label %15

15:                                               ; preds = %14, %2
  call void @llvm.lifetime.end.p0(i64 4, ptr %5) #3
  ret void
}