; Function Attrs: mustprogress uwtable
define dso_local void @_ZNK3Lhs14get_qualifiersEv(ptr dead_on_unwind noalias writable sret(%class.CVQualifiers) align 8 %0, ptr noundef nonnull readonly align 8 captures(none) dereferenceable(41) %1) unnamed_addr #3 align 2 {
  %3 = getelementptr inbounds nuw i8, ptr %1, i64 24
  %4 = load ptr, ptr %3, align 8, !tbaa !97
  %5 = getelementptr inbounds nuw i8, ptr %4, i64 64
  %6 = load ptr, ptr %5, align 8, !tbaa !42
  %7 = tail call noundef i32 @_ZNK4Type18get_indirect_levelEv(ptr noundef nonnull align 8 dereferenceable(136) %6)
  %8 = getelementptr inbounds nuw i8, ptr %1, i64 32
  %9 = load ptr, ptr %8, align 8, !tbaa !92
  %10 = tail call noundef i32 @_ZNK4Type18get_indirect_levelEv(ptr noundef nonnull align 8 dereferenceable(136) %9)
  %11 = sub nsw i32 %7, %10
  %12 = load ptr, ptr %3, align 8, !tbaa !97
  %13 = getelementptr inbounds nuw i8, ptr %12, i64 104
  tail call void @_ZNK12CVQualifiers19indirect_qualifiersEi(ptr dead_on_unwind writable sret(%class.CVQualifiers) align 8 %0, ptr noundef nonnull align 8 dereferenceable(96) %13, i32 noundef %11)
  ret void
}